target datalayout = "e-m:e-p270:32:32-p271:32:32-p272:64:64-i64:64-i128:128-f80:128-n8:16:32:64-S128"
target triple = "x86_64-pc-linux-gnu"

%struct.KDF_HMAC_DRBG = type { %struct.drbg_hmac_st, ptr, ptr, ptr, i64, i64, i32 }
%struct.drbg_hmac_st = type { ptr, %struct.PROV_DIGEST, i64, [64 x i8], [64 x i8] }
%struct.PROV_DIGEST = type { ptr, ptr, ptr }
%struct.ossl_param_st = type { ptr, i32, ptr, i64, i64 }

@.str = private unnamed_addr constant [57 x i8] c"../openssl/providers/implementations/kdfs/hmacdrbg_kdf.c\00", align 1
@.str.1 = private unnamed_addr constant [8 x i8] c"entropy\00", align 1
@.str.2 = private unnamed_addr constant [6 x i8] c"nonce\00", align 1
@.str.3 = private unnamed_addr constant [7 x i8] c"digest\00", align 1
@__func__.hmac_drbg_kdf_set_ctx_params = private unnamed_addr constant [29 x i8] c"hmac_drbg_kdf_set_ctx_params\00", align 1
@.str.5 = private unnamed_addr constant [5 x i8] c"HMAC\00", align 1

; Function Attrs: inlinehint nounwind uwtable
define internal i32 @ossl_param_is_empty(ptr noundef %0) #4 {
  %2 = alloca ptr, align 8
  store ptr %0, ptr %2, align 8, !tbaa !27
  %3 = load ptr, ptr %2, align 8, !tbaa !27
  %4 = icmp eq ptr %3, null
  br i1 %4, label %10, label %5

5:                                                ; preds = %1
  %6 = load ptr, ptr %2, align 8, !tbaa !27
  %7 = getelementptr inbounds nuw %struct.ossl_param_st, ptr %6, i32 0, i32 0
  %8 = load ptr, ptr %7, align 8, !tbaa !34
  %9 = icmp eq ptr %8, null
  br label %10

10:                                               ; preds = %5, %1
  %11 = phi i1 [ true, %1 ], [ %9, %5 ]
  %12 = zext i1 %11 to i32
  ret i32 %12
}

; Function Attrs: nounwind uwtable
define internal i32 @hmac_drbg_kdf_set_ctx_params(ptr noundef %0, ptr noundef %1) #0 {
  %3 = alloca i32, align 4
  %4 = alloca ptr, align 8
  %5 = alloca ptr, align 8
  %6 = alloca ptr, align 8
  %7 = alloca ptr, align 8
  %8 = alloca ptr, align 8
  %9 = alloca ptr, align 8
  %10 = alloca ptr, align 8
  %11 = alloca ptr, align 8
  %12 = alloca i64, align 8
  %13 = alloca i32, align 4
  %14 = alloca i32, align 4
  store ptr %0, ptr %4, align 8, !tbaa !3
  store ptr %1, ptr %5, align 8, !tbaa !27
  call void @llvm.lifetime.start.p0(i64 8, ptr %6) #5
  %15 = load ptr, ptr %4, align 8, !tbaa !3
  store ptr %15, ptr %6, align 8, !tbaa !3
  call void @llvm.lifetime.start.p0(i64 8, ptr %7) #5
  %16 = load ptr, ptr %6, align 8, !tbaa !3
  %17 = getelementptr inbounds nuw %struct.KDF_HMAC_DRBG, ptr %16, i32 0, i32 0
  store ptr %17, ptr %7, align 8, !tbaa !22
  call void @llvm.lifetime.start.p0(i64 8, ptr %8) #5
  %18 = load ptr, ptr %6, align 8, !tbaa !3
  %19 = getelementptr inbounds nuw %struct.KDF_HMAC_DRBG, ptr %18, i32 0, i32 1
  %20 = load ptr, ptr %19, align 8, !tbaa !7
  %21 = call ptr @ossl_prov_ctx_get0_libctx(ptr noundef %20)
  store ptr %21, ptr %8, align 8, !tbaa !29
  call void @llvm.lifetime.start.p0(i64 8, ptr %9) #5
  call void @llvm.lifetime.start.p0(i64 8, ptr %10) #5
  call void @llvm.lifetime.start.p0(i64 8, ptr %11) #5
  store ptr null, ptr %11, align 8, !tbaa !3
  call void @llvm.lifetime.start.p0(i64 8, ptr %12) #5
  store i64 0, ptr %12, align 8, !tbaa !26
  call void @llvm.lifetime.start.p0(i64 4, ptr %13) #5
  %22 = load ptr, ptr %5, align 8, !tbaa !27
  %23 = call i32 @ossl_param_is_empty(ptr noundef %22)
  %24 = icmp ne i32 %23, 0
  br i1 %24, label %25, label %26

25:                                               ; preds = %2
  store i32 1, ptr %3, align 4
  store i32 1, ptr %14, align 4
  br label %112

26:                                               ; preds = %2
  %27 = load ptr, ptr %5, align 8, !tbaa !27
  %28 = call ptr @OSSL_PARAM_locate_const(ptr noundef %27, ptr noundef @.str.1)
  store ptr %28, ptr %10, align 8, !tbaa !27
  %29 = load ptr, ptr %10, align 8, !tbaa !27
  %30 = icmp ne ptr %29, null
  br i1 %30, label %31, label %48

31:                                               ; preds = %26
  %32 = load ptr, ptr %10, align 8, !tbaa !27
  %33 = call i32 @OSSL_PARAM_get_octet_string(ptr noundef %32, ptr noundef %11, i64 noundef 0, ptr noundef %12)
  %34 = icmp ne i32 %33, 0
  br i1 %34, label %36, label %35

35:                                               ; preds = %31
  store i32 0, ptr %3, align 4
  store i32 1, ptr %14, align 4
  br label %112

36:                                               ; preds = %31
  %37 = load ptr, ptr %6, align 8, !tbaa !3
  %38 = getelementptr inbounds nuw %struct.KDF_HMAC_DRBG, ptr %37, i32 0, i32 2
  %39 = load ptr, ptr %38, align 8, !tbaa !17
  call void @CRYPTO_free(ptr noundef %39, ptr noundef @.str, i32 noundef 195)
  %40 = load ptr, ptr %11, align 8, !tbaa !3
  %41 = load ptr, ptr %6, align 8, !tbaa !3
  %42 = getelementptr inbounds nuw %struct.KDF_HMAC_DRBG, ptr %41, i32 0, i32 2
  store ptr %40, ptr %42, align 8, !tbaa !17
  %43 = load i64, ptr %12, align 8, !tbaa !26
  %44 = load ptr, ptr %6, align 8, !tbaa !3
  %45 = getelementptr inbounds nuw %struct.KDF_HMAC_DRBG, ptr %44, i32 0, i32 4
  store i64 %43, ptr %45, align 8, !tbaa !18
  %46 = load ptr, ptr %6, align 8, !tbaa !3
  %47 = getelementptr inbounds nuw %struct.KDF_HMAC_DRBG, ptr %46, i32 0, i32 6
  store i32 0, ptr %47, align 8, !tbaa !21
  store ptr null, ptr %11, align 8, !tbaa !3
  br label %48

48:                                               ; preds = %36, %26
  %49 = load ptr, ptr %5, align 8, !tbaa !27
  %50 = call ptr @OSSL_PARAM_locate_const(ptr noundef %49, ptr noundef @.str.2)
  store ptr %50, ptr %10, align 8, !tbaa !27
  %51 = load ptr, ptr %10, align 8, !tbaa !27
  %52 = icmp ne ptr %51, null
  br i1 %52, label %53, label %70

53:                                               ; preds = %48
  %54 = load ptr, ptr %10, align 8, !tbaa !27
  %55 = call i32 @OSSL_PARAM_get_octet_string(ptr noundef %54, ptr noundef %11, i64 noundef 0, ptr noundef %12)
  %56 = icmp ne i32 %55, 0
  br i1 %56, label %58, label %57

57:                                               ; preds = %53
  store i32 0, ptr %3, align 4
  store i32 1, ptr %14, align 4
  br label %112

58:                                               ; preds = %53
  %59 = load ptr, ptr %6, align 8, !tbaa !3
  %60 = getelementptr inbounds nuw %struct.KDF_HMAC_DRBG, ptr %59, i32 0, i32 3
  %61 = load ptr, ptr %60, align 8, !tbaa !19
  call void @CRYPTO_free(ptr noundef %61, ptr noundef @.str, i32 noundef 206)
  %62 = load ptr, ptr %11, align 8, !tbaa !3
  %63 = load ptr, ptr %6, align 8, !tbaa !3
  %64 = getelementptr inbounds nuw %struct.KDF_HMAC_DRBG, ptr %63, i32 0, i32 3
  store ptr %62, ptr %64, align 8, !tbaa !19
  %65 = load i64, ptr %12, align 8, !tbaa !26
  %66 = load ptr, ptr %6, align 8, !tbaa !3
  %67 = getelementptr inbounds nuw %struct.KDF_HMAC_DRBG, ptr %66, i32 0, i32 5
  store i64 %65, ptr %67, align 8, !tbaa !20
  %68 = load ptr, ptr %6, align 8, !tbaa !3
  %69 = getelementptr inbounds nuw %struct.KDF_HMAC_DRBG, ptr %68, i32 0, i32 6
  store i32 0, ptr %69, align 8, !tbaa !21
  br label %70

70:                                               ; preds = %58, %48
  %71 = load ptr, ptr %5, align 8, !tbaa !27
  %72 = call ptr @OSSL_PARAM_locate_const(ptr noundef %71, ptr noundef @.str.3)
  store ptr %72, ptr %10, align 8, !tbaa !27
  %73 = load ptr, ptr %10, align 8, !tbaa !27
  %74 = icmp ne ptr %73, null
  br i1 %74, label %75, label %111

75:                                               ; preds = %70
  %76 = load ptr, ptr %7, align 8, !tbaa !22
  %77 = getelementptr inbounds nuw %struct.drbg_hmac_st, ptr %76, i32 0, i32 1
  %78 = load ptr, ptr %5, align 8, !tbaa !27
  %79 = load ptr, ptr %8, align 8, !tbaa !29
  %80 = call i32 @ossl_prov_digest_load_from_params(ptr noundef %77, ptr noundef %78, ptr noundef %79)
  %81 = icmp ne i32 %80, 0
  br i1 %81, label %83, label %82

82:                                               ; preds = %75
  store i32 0, ptr %3, align 4
  store i32 1, ptr %14, align 4
  br label %112

83:                                               ; preds = %75
  %84 = load ptr, ptr %7, align 8, !tbaa !22
  %85 = getelementptr inbounds nuw %struct.drbg_hmac_st, ptr %84, i32 0, i32 1
  %86 = call ptr @ossl_prov_digest_md(ptr noundef %85)
  store ptr %86, ptr %9, align 8, !tbaa !31
  %87 = load ptr, ptr %9, align 8, !tbaa !31
  %88 = icmp ne ptr %87, null
  br i1 %88, label %89, label %105

89:                                               ; preds = %83
  %90 = load ptr, ptr %9, align 8, !tbaa !31
  %91 = call i32 @EVP_MD_xof(ptr noundef %90)
  %92 = icmp ne i32 %91, 0
  br i1 %92, label %93, label %94

93:                                               ; preds = %89
  call void @ERR_new()
  call void @ERR_set_debug(ptr noundef @.str, i32 noundef 221, ptr noundef @__func__.hmac_drbg_kdf_set_ctx_params)
  call void (i32, i32, ptr, ...) @ERR_set_error(i32 noundef 57, i32 noundef 183, ptr noundef null)
  store i32 0, ptr %3, align 4
  store i32 1, ptr %14, align 4
  br label %112

94:                                               ; preds = %89
  %95 = load ptr, ptr %9, align 8, !tbaa !31
  %96 = call i32 @EVP_MD_get_size(ptr noundef %95)
  store i32 %96, ptr %13, align 4, !tbaa !32
  %97 = load i32, ptr %13, align 4, !tbaa !32
  %98 = icmp sle i32 %97, 0
  br i1 %98, label %99, label %100

99:                                               ; preds = %94
  store i32 0, ptr %3, align 4
  store i32 1, ptr %14, align 4
  br label %112

100:                                              ; preds = %94
  %101 = load i32, ptr %13, align 4, !tbaa !32
  %102 = sext i32 %101 to i64
  %103 = load ptr, ptr %7, align 8, !tbaa !22
  %104 = getelementptr inbounds nuw %struct.drbg_hmac_st, ptr %103, i32 0, i32 2
  store i64 %102, ptr %104, align 8, !tbaa !33
  br label %105

105:                                              ; preds = %100, %83
  %106 = load ptr, ptr %7, align 8, !tbaa !22
  %107 = getelementptr inbounds nuw %struct.drbg_hmac_st, ptr %106, i32 0, i32 0
  %108 = load ptr, ptr %5, align 8, !tbaa !27
  %109 = load ptr, ptr %8, align 8, !tbaa !29
  %110 = call i32 @ossl_prov_macctx_load_from_params(ptr noundef %107, ptr noundef %108, ptr noundef @.str.5, ptr noundef null, ptr noundef null, ptr noundef %109)
  store i32 %110, ptr %3, align 4
  store i32 1, ptr %14, align 4
  br label %112

111:                                              ; preds = %70
  store i32 1, ptr %3, align 4
  store i32 1, ptr %14, align 4
  br label %112

112:                                              ; preds = %111, %105, %99, %93, %82, %57, %35, %25
  call void @llvm.lifetime.end.p0(i64 4, ptr %13) #5
  call void @llvm.lifetime.end.p0(i64 8, ptr %12) #5
  call void @llvm.lifetime.end.p0(i64 8, ptr %11) #5
  call void @llvm.lifetime.end.p0(i64 8, ptr %10) #5
  call void @llvm.lifetime.end.p0(i64 8, ptr %9) #5
  call void @llvm.lifetime.end.p0(i64 8, ptr %8) #5
  call void @llvm.lifetime.end.p0(i64 8, ptr %7) #5
  call void @llvm.lifetime.end.p0(i64 8, ptr %6) #5
  %113 = load i32, ptr %3, align 4
  ret i32 %113
}