; Function Attrs: nounwind uwtable
define internal i32 @hmac_drbg_kdf_set_ctx_params(ptr noundef %0, ptr noundef %1) #0 {
  %3 = alloca ptr, align 8
  %4 = alloca i64, align 8
  %5 = getelementptr inbounds nuw i8, ptr %0, i64 168
  %6 = load ptr, ptr %5, align 8, !tbaa !3
  %7 = tail call ptr @ossl_prov_ctx_get0_libctx(ptr noundef %6) #5
  call void @llvm.lifetime.start.p0(i64 8, ptr nonnull %3) #5
  store ptr null, ptr %3, align 8, !tbaa !23
  call void @llvm.lifetime.start.p0(i64 8, ptr nonnull %4) #5
  store i64 0, ptr %4, align 8, !tbaa !24
  %8 = icmp eq ptr %1, null
  br i1 %8, label %ossl_param_is_empty.exit.thread, label %ossl_param_is_empty.exit

ossl_param_is_empty.exit:                         ; preds = %2
  %9 = load ptr, ptr %1, align 8, !tbaa !25
  %.not = icmp eq ptr %9, null
  br i1 %.not, label %ossl_param_is_empty.exit.thread, label %10

10:                                               ; preds = %ossl_param_is_empty.exit
  %11 = tail call ptr @OSSL_PARAM_locate_const(ptr noundef nonnull %1, ptr noundef nonnull @.str.1) #5
  %.not37 = icmp eq ptr %11, null
  br i1 %.not37, label %21, label %12

12:                                               ; preds = %10
  %13 = call i32 @OSSL_PARAM_get_octet_string(ptr noundef nonnull %11, ptr noundef nonnull %3, i64 noundef 0, ptr noundef nonnull %4) #5
  %.not38 = icmp eq i32 %13, 0
  br i1 %.not38, label %ossl_param_is_empty.exit.thread, label %14

14:                                               ; preds = %12
  %15 = getelementptr inbounds nuw i8, ptr %0, i64 176
  %16 = load ptr, ptr %15, align 8, !tbaa !17
  call void @CRYPTO_free(ptr noundef %16, ptr noundef nonnull @.str, i32 noundef 195) #5
  %17 = load ptr, ptr %3, align 8, !tbaa !23
  store ptr %17, ptr %15, align 8, !tbaa !17
  %18 = load i64, ptr %4, align 8, !tbaa !24
  %19 = getelementptr inbounds nuw i8, ptr %0, i64 192
  store i64 %18, ptr %19, align 8, !tbaa !18
  %20 = getelementptr inbounds nuw i8, ptr %0, i64 208
  store i32 0, ptr %20, align 8, !tbaa !22
  store ptr null, ptr %3, align 8, !tbaa !23
  br label %21

21:                                               ; preds = %14, %10
  %22 = call ptr @OSSL_PARAM_locate_const(ptr noundef nonnull %1, ptr noundef nonnull @.str.2) #5
  %.not39 = icmp eq ptr %22, null
  br i1 %.not39, label %32, label %23

23:                                               ; preds = %21
  %24 = call i32 @OSSL_PARAM_get_octet_string(ptr noundef nonnull %22, ptr noundef nonnull %3, i64 noundef 0, ptr noundef nonnull %4) #5
  %.not40 = icmp eq i32 %24, 0
  br i1 %.not40, label %ossl_param_is_empty.exit.thread, label %25

25:                                               ; preds = %23
  %26 = getelementptr inbounds nuw i8, ptr %0, i64 184
  %27 = load ptr, ptr %26, align 8, !tbaa !19
  call void @CRYPTO_free(ptr noundef %27, ptr noundef nonnull @.str, i32 noundef 206) #5
  %28 = load ptr, ptr %3, align 8, !tbaa !23
  store ptr %28, ptr %26, align 8, !tbaa !19
  %29 = load i64, ptr %4, align 8, !tbaa !24
  %30 = getelementptr inbounds nuw i8, ptr %0, i64 200
  store i64 %29, ptr %30, align 8, !tbaa !20
  %31 = getelementptr inbounds nuw i8, ptr %0, i64 208
  store i32 0, ptr %31, align 8, !tbaa !22
  br label %32

32:                                               ; preds = %25, %21
  %33 = call ptr @OSSL_PARAM_locate_const(ptr noundef nonnull %1, ptr noundef nonnull @.str.3) #5
  %.not41 = icmp eq ptr %33, null
  br i1 %.not41, label %ossl_param_is_empty.exit.thread, label %34

34:                                               ; preds = %32
  %35 = getelementptr inbounds nuw i8, ptr %0, i64 8
  %36 = call i32 @ossl_prov_digest_load_from_params(ptr noundef nonnull %35, ptr noundef nonnull %1, ptr noundef %7) #5
  %.not42 = icmp eq i32 %36, 0
  br i1 %.not42, label %ossl_param_is_empty.exit.thread, label %37

37:                                               ; preds = %34
  %38 = call ptr @ossl_prov_digest_md(ptr noundef nonnull %35) #5
  %.not43 = icmp eq ptr %38, null
  br i1 %.not43, label %48, label %39

39:                                               ; preds = %37
  %40 = call i32 @EVP_MD_xof(ptr noundef nonnull %38) #5
  %.not44 = icmp eq i32 %40, 0
  br i1 %.not44, label %42, label %41

41:                                               ; preds = %39
  call void @ERR_new() #5
  call void @ERR_set_debug(ptr noundef nonnull @.str, i32 noundef 221, ptr noundef nonnull @__func__.hmac_drbg_kdf_set_ctx_params) #5
  call void (i32, i32, ptr, ...) @ERR_set_error(i32 noundef 57, i32 noundef 183, ptr noundef null) #5
  br label %ossl_param_is_empty.exit.thread

42:                                               ; preds = %39
  %43 = call i32 @EVP_MD_get_size(ptr noundef nonnull %38) #5
  %44 = icmp slt i32 %43, 1
  br i1 %44, label %ossl_param_is_empty.exit.thread, label %45

45:                                               ; preds = %42
  %46 = zext nneg i32 %43 to i64
  %47 = getelementptr inbounds nuw i8, ptr %0, i64 32
  store i64 %46, ptr %47, align 8, !tbaa !21
  br label %48

48:                                               ; preds = %45, %37
  %49 = call i32 @ossl_prov_macctx_load_from_params(ptr noundef nonnull %0, ptr noundef nonnull %1, ptr noundef nonnull @.str.5, ptr noundef null, ptr noundef null, ptr noundef %7) #5
  br label %ossl_param_is_empty.exit.thread

ossl_param_is_empty.exit.thread:                  ; preds = %2, %32, %42, %34, %23, %12, %ossl_param_is_empty.exit, %48, %41
  %.0 = phi i32 [ 0, %41 ], [ %49, %48 ], [ 1, %ossl_param_is_empty.exit ], [ 0, %12 ], [ 0, %23 ], [ 0, %34 ], [ 0, %42 ], [ 1, %32 ], [ 1, %2 ]
  call void @llvm.lifetime.end.p0(i64 8, ptr nonnull %4) #5
  call void @llvm.lifetime.end.p0(i64 8, ptr nonnull %3) #5
  ret i32 %.0
}